; ModuleID = '46/2607.c'
source_filename = "46/2607.c"
target datalayout = "e-m:e-p270:32:32-p271:32:32-p272:64:64-i64:64-f80:128-n8:16:32:64-S128"
target triple = "x86_64-pc-linux-gnu"

@.str = private unnamed_addr constant [6 x i8] c"%d %d\00", align 1
@.str.1 = private unnamed_addr constant [3 x i8] c"%d\00", align 1
@.str.2 = private unnamed_addr constant [4 x i8] c"%d\0A\00", align 1

; Function Attrs: noinline nounwind uwtable
define dso_local i32 @main() #0 {
  %1 = alloca i32, align 4
  %2 = alloca [100 x [100 x i32]], align 16
  %3 = alloca i32, align 4
  %4 = alloca i32, align 4
  %5 = alloca i32, align 4
  %6 = alloca i32, align 4
  %7 = alloca i32, align 4
  %8 = alloca i32, align 4
  %9 = alloca i32, align 4
  store i32 0, i32* %1, align 4
  %10 = call i32 (i8*, ...) @__isoc99_scanf(i8* getelementptr inbounds ([6 x i8], [6 x i8]* @.str, i64 0, i64 0), i32* %5, i32* %6)
  %11 = load i32, i32* %5, align 4
  %12 = icmp sgt i32 %11, 0
  br i1 %12, label %13, label %216

13:                                               ; preds = %0
  %14 = load i32, i32* %5, align 4
  %15 = icmp slt i32 %14, 100
  br i1 %15, label %16, label %216

16:                                               ; preds = %13
  %17 = load i32, i32* %6, align 4
  %18 = icmp sgt i32 %17, 0
  br i1 %18, label %19, label %216

19:                                               ; preds = %16
  %20 = load i32, i32* %6, align 4
  %21 = icmp slt i32 %20, 100
  br i1 %21, label %22, label %216

22:                                               ; preds = %19
  store i32 0, i32* %3, align 4
  br label %23

23:                                               ; preds = %44, %22
  %24 = load i32, i32* %3, align 4
  %25 = load i32, i32* %5, align 4
  %26 = icmp slt i32 %24, %25
  br i1 %26, label %27, label %47

27:                                               ; preds = %23
  store i32 0, i32* %4, align 4
  br label %28

28:                                               ; preds = %40, %27
  %29 = load i32, i32* %4, align 4
  %30 = load i32, i32* %6, align 4
  %31 = icmp slt i32 %29, %30
  br i1 %31, label %32, label %43

32:                                               ; preds = %28
  %33 = load i32, i32* %3, align 4
  %34 = sext i32 %33 to i64
  %35 = getelementptr inbounds [100 x [100 x i32]], [100 x [100 x i32]]* %2, i64 0, i64 %34
  %36 = load i32, i32* %4, align 4
  %37 = sext i32 %36 to i64
  %38 = getelementptr inbounds [100 x i32], [100 x i32]* %35, i64 0, i64 %37
  %39 = call i32 (i8*, ...) @__isoc99_scanf(i8* getelementptr inbounds ([3 x i8], [3 x i8]* @.str.1, i64 0, i64 0), i32* %38)
  br label %40

40:                                               ; preds = %32
  %41 = load i32, i32* %4, align 4
  %42 = add nsw i32 %41, 1
  store i32 %42, i32* %4, align 4
  br label %28

43:                                               ; preds = %28
  br label %44

44:                                               ; preds = %43
  %45 = load i32, i32* %3, align 4
  %46 = add nsw i32 %45, 1
  store i32 %46, i32* %3, align 4
  br label %23

47:                                               ; preds = %23
  store i32 0, i32* %3, align 4
  store i32 0, i32* %4, align 4
  store i32 0, i32* %7, align 4
  br label %48

48:                                               ; preds = %210, %47
  %49 = load i32, i32* %7, align 4
  %50 = load i32, i32* %5, align 4
  %51 = load i32, i32* %6, align 4
  %52 = mul nsw i32 %50, %51
  %53 = icmp slt i32 %49, %52
  br i1 %53, label %54, label %215

54:                                               ; preds = %48
  %55 = load i32, i32* %4, align 4
  store i32 %55, i32* %8, align 4
  br label %56

56:                                               ; preds = %81, %54
  %57 = load i32, i32* %8, align 4
  %58 = load i32, i32* %6, align 4
  %59 = load i32, i32* %4, align 4
  %60 = sub nsw i32 %58, %59
  %61 = sub nsw i32 %60, 1
  %62 = icmp sle i32 %57, %61
  br i1 %62, label %63, label %84

63:                                               ; preds = %56
  %64 = load i32, i32* %3, align 4
  %65 = sext i32 %64 to i64
  %66 = getelementptr inbounds [100 x [100 x i32]], [100 x [100 x i32]]* %2, i64 0, i64 %65
  %67 = load i32, i32* %8, align 4
  %68 = sext i32 %67 to i64
  %69 = getelementptr inbounds [100 x i32], [100 x i32]* %66, i64 0, i64 %68
  %70 = load i32, i32* %69, align 4
  %71 = call i32 (i8*, ...) @printf(i8* getelementptr inbounds ([4 x i8], [4 x i8]* @.str.2, i64 0, i64 0), i32 %70)
  %72 = load i32, i32* %7, align 4
  %73 = add nsw i32 %72, 1
  store i32 %73, i32* %7, align 4
  %74 = load i32, i32* %7, align 4
  %75 = load i32, i32* %5, align 4
  %76 = load i32, i32* %6, align 4
  %77 = mul nsw i32 %75, %76
  %78 = icmp sge i32 %74, %77
  br i1 %78, label %79, label %80

79:                                               ; preds = %63
  br label %84

80:                                               ; preds = %63
  br label %81

81:                                               ; preds = %80
  %82 = load i32, i32* %8, align 4
  %83 = add nsw i32 %82, 1
  store i32 %83, i32* %8, align 4
  br label %56

84:                                               ; preds = %79, %56
  %85 = load i32, i32* %7, align 4
  %86 = load i32, i32* %5, align 4
  %87 = load i32, i32* %6, align 4
  %88 = mul nsw i32 %86, %87
  %89 = icmp sge i32 %85, %88
  br i1 %89, label %90, label %91

90:                                               ; preds = %84
  br label %215

91:                                               ; preds = %84
  %92 = load i32, i32* %3, align 4
  %93 = add nsw i32 %92, 1
  store i32 %93, i32* %9, align 4
  br label %94

94:                                               ; preds = %122, %91
  %95 = load i32, i32* %9, align 4
  %96 = load i32, i32* %5, align 4
  %97 = load i32, i32* %3, align 4
  %98 = sub nsw i32 %96, %97
  %99 = sub nsw i32 %98, 1
  %100 = icmp slt i32 %95, %99
  br i1 %100, label %101, label %125

101:                                              ; preds = %94
  %102 = load i32, i32* %9, align 4
  %103 = sext i32 %102 to i64
  %104 = getelementptr inbounds [100 x [100 x i32]], [100 x [100 x i32]]* %2, i64 0, i64 %103
  %105 = load i32, i32* %6, align 4
  %106 = load i32, i32* %4, align 4
  %107 = sub nsw i32 %105, %106
  %108 = sub nsw i32 %107, 1
  %109 = sext i32 %108 to i64
  %110 = getelementptr inbounds [100 x i32], [100 x i32]* %104, i64 0, i64 %109
  %111 = load i32, i32* %110, align 4
  %112 = call i32 (i8*, ...) @printf(i8* getelementptr inbounds ([4 x i8], [4 x i8]* @.str.2, i64 0, i64 0), i32 %111)
  %113 = load i32, i32* %7, align 4
  %114 = add nsw i32 %113, 1
  store i32 %114, i32* %7, align 4
  %115 = load i32, i32* %7, align 4
  %116 = load i32, i32* %5, align 4
  %117 = load i32, i32* %6, align 4
  %118 = mul nsw i32 %116, %117
  %119 = icmp sge i32 %115, %118
  br i1 %119, label %120, label %121

120:                                              ; preds = %101
  br label %125

121:                                              ; preds = %101
  br label %122

122:                                              ; preds = %121
  %123 = load i32, i32* %9, align 4
  %124 = add nsw i32 %123, 1
  store i32 %124, i32* %9, align 4
  br label %94

125:                                              ; preds = %120, %94
  %126 = load i32, i32* %7, align 4
  %127 = load i32, i32* %5, align 4
  %128 = load i32, i32* %6, align 4
  %129 = mul nsw i32 %127, %128
  %130 = icmp sge i32 %126, %129
  br i1 %130, label %131, label %132

131:                                              ; preds = %125
  br label %215

132:                                              ; preds = %125
  %133 = load i32, i32* %6, align 4
  %134 = load i32, i32* %4, align 4
  %135 = sub nsw i32 %133, %134
  %136 = sub nsw i32 %135, 1
  store i32 %136, i32* %8, align 4
  br label %137

137:                                              ; preds = %162, %132
  %138 = load i32, i32* %8, align 4
  %139 = load i32, i32* %4, align 4
  %140 = icmp sgt i32 %138, %139
  br i1 %140, label %141, label %165

141:                                              ; preds = %137
  %142 = load i32, i32* %5, align 4
  %143 = load i32, i32* %3, align 4
  %144 = sub nsw i32 %142, %143
  %145 = sub nsw i32 %144, 1
  %146 = sext i32 %145 to i64
  %147 = getelementptr inbounds [100 x [100 x i32]], [100 x [100 x i32]]* %2, i64 0, i64 %146
  %148 = load i32, i32* %8, align 4
  %149 = sext i32 %148 to i64
  %150 = getelementptr inbounds [100 x i32], [100 x i32]* %147, i64 0, i64 %149
  %151 = load i32, i32* %150, align 4
  %152 = call i32 (i8*, ...) @printf(i8* getelementptr inbounds ([4 x i8], [4 x i8]* @.str.2, i64 0, i64 0), i32 %151)
  %153 = load i32, i32* %7, align 4
  %154 = add nsw i32 %153, 1
  store i32 %154, i32* %7, align 4
  %155 = load i32, i32* %7, align 4
  %156 = load i32, i32* %5, align 4
  %157 = load i32, i32* %6, align 4
  %158 = mul nsw i32 %156, %157
  %159 = icmp sge i32 %155, %158
  br i1 %159, label %160, label %161

160:                                              ; preds = %141
  br label %165

161:                                              ; preds = %141
  br label %162

162:                                              ; preds = %161
  %163 = load i32, i32* %8, align 4
  %164 = add nsw i32 %163, -1
  store i32 %164, i32* %8, align 4
  br label %137

165:                                              ; preds = %160, %137
  %166 = load i32, i32* %7, align 4
  %167 = load i32, i32* %5, align 4
  %168 = load i32, i32* %6, align 4
  %169 = mul nsw i32 %167, %168
  %170 = icmp sge i32 %166, %169
  br i1 %170, label %171, label %172

171:                                              ; preds = %165
  br label %215

172:                                              ; preds = %165
  %173 = load i32, i32* %5, align 4
  %174 = load i32, i32* %3, align 4
  %175 = sub nsw i32 %173, %174
  %176 = sub nsw i32 %175, 1
  store i32 %176, i32* %9, align 4
  br label %177

177:                                              ; preds = %199, %172
  %178 = load i32, i32* %9, align 4
  %179 = load i32, i32* %3, align 4
  %180 = icmp sgt i32 %178, %179
  br i1 %180, label %181, label %202

181:                                              ; preds = %177
  %182 = load i32, i32* %9, align 4
  %183 = sext i32 %182 to i64
  %184 = getelementptr inbounds [100 x [100 x i32]], [100 x [100 x i32]]* %2, i64 0, i64 %183
  %185 = load i32, i32* %4, align 4
  %186 = sext i32 %185 to i64
  %187 = getelementptr inbounds [100 x i32], [100 x i32]* %184, i64 0, i64 %186
  %188 = load i32, i32* %187, align 4
  %189 = call i32 (i8*, ...) @printf(i8* getelementptr inbounds ([4 x i8], [4 x i8]* @.str.2, i64 0, i64 0), i32 %188)
  %190 = load i32, i32* %7, align 4
  %191 = add nsw i32 %190, 1
  store i32 %191, i32* %7, align 4
  %192 = load i32, i32* %7, align 4
  %193 = load i32, i32* %5, align 4
  %194 = load i32, i32* %6, align 4
  %195 = mul nsw i32 %193, %194
  %196 = icmp sge i32 %192, %195
  br i1 %196, label %197, label %198

197:                                              ; preds = %181
  br label %202

198:                                              ; preds = %181
  br label %199

199:                                              ; preds = %198
  %200 = load i32, i32* %9, align 4
  %201 = add nsw i32 %200, -1
  store i32 %201, i32* %9, align 4
  br label %177

202:                                              ; preds = %197, %177
  %203 = load i32, i32* %7, align 4
  %204 = load i32, i32* %5, align 4
  %205 = load i32, i32* %6, align 4
  %206 = mul nsw i32 %204, %205
  %207 = icmp sge i32 %203, %206
  br i1 %207, label %208, label %209

208:                                              ; preds = %202
  br label %215

209:                                              ; preds = %202
  br label %210

210:                                              ; preds = %209
  %211 = load i32, i32* %3, align 4
  %212 = add nsw i32 %211, 1
  store i32 %212, i32* %3, align 4
  %213 = load i32, i32* %4, align 4
  %214 = add nsw i32 %213, 1
  store i32 %214, i32* %4, align 4
  br label %48

215:                                              ; preds = %208, %171, %131, %90, %48
  br label %216

216:                                              ; preds = %215, %19, %16, %13, %0
  ret i32 0
}

declare dso_local i32 @__isoc99_scanf(i8*, ...) #1

declare dso_local i32 @printf(i8*, ...) #1


!llvm.module.flags = !{!0}
!llvm.ident = !{!1}

!0 = !{i32 1, !"wchar_size", i32 4}
!1 = !{!"clang version 10.0.0-4ubuntu1 "}
